target datalayout = "e-m:e-p270:32:32-p271:32:32-p272:64:64-i64:64-i128:128-f80:128-n8:16:32:64-S128"
target triple = "x86_64-pc-linux-gnu"

%struct.CVodeMemRec = type { ptr, double, ptr, ptr, i32, i32, double, double, ptr, i32, i32, ptr, ptr, i32, i32, ptr, i32, i32, double, double, ptr, i32, i32, i32, i32, ptr, ptr, ptr, i32, i32, ptr, ptr, ptr, i32, double, i32, i32, double, ptr, ptr, ptr, i32, ptr, ptr, i32, i32, i32, double, ptr, ptr, ptr, [13 x ptr], ptr, ptr, ptr, ptr, ptr, ptr, ptr, ptr, ptr, [13 x ptr], ptr, ptr, ptr, ptr, [13 x ptr], ptr, ptr, ptr, ptr, ptr, i32, [13 x ptr], ptr, ptr, ptr, ptr, ptr, i32, i32, double, i32, i32, i32, i32, i32, double, double, double, double, double, double, double, double, [14 x double], [6 x double], [13 x double], double, double, double, double, double, double, double, double, i32, double, double, i32, double, double, ptr, i32, i64, i32, i32, i32, double, double, double, double, double, double, double, double, double, double, double, double, i64, i32, i64, i64, i64, i64, i64, i64, i64, i64, i64, ptr, i64, i64, ptr, i64, i64, ptr, i64, i64, i64, i64, i64, i64, i32, double, double, double, i64, i64, i64, i64, i64, i64, ptr, i32, ptr, i32, ptr, i32, ptr, i32, i32, i64, i32, ptr, i32, ptr, ptr, ptr, ptr, ptr, ptr, i32, i32, ptr, ptr, ptr, ptr, ptr, i64, double, i32, i32, i64, double, double, double, i32, i32, double, i32, i32, i32, i32, i32, i32, i32, i32, i32, i32, i32, i32, i32, i32, i32, i32, ptr, i64, i32, [6 x [4 x double]], i32, i64, ptr, i32, ptr, ptr, double, double, double, ptr, ptr, ptr, double, double, i32, i32, i64, ptr, i32, ptr, i32, i32, [13 x double], ptr, ptr, ptr, i32, ptr, i32 }

@.str = private unnamed_addr constant [124 x i8] c"generated/home/dtcxzyw/WorkSpace/Projects/compilers/llvm-opt-benchmark/bench/sundials/sundials/src/cvodes/cvodes_nls_stg1.c\00", align 1
@__func__.cvNlsInitSensStg1 = private unnamed_addr constant [18 x i8] c"cvNlsInitSensStg1\00", align 1
@.str.10 = private unnamed_addr constant [48 x i8] c"Setting the linear solver setup function failed\00", align 1
@.str.11 = private unnamed_addr constant [44 x i8] c"Setting linear solver solve function failed\00", align 1
@.str.12 = private unnamed_addr constant [44 x i8] c"The nonlinear solver's init routine failed.\00", align 1

; Function Attrs: nounwind uwtable
define i32 @cvNlsInitSensStg1(ptr noundef %0) #0 {
  %2 = alloca i32, align 4
  %3 = alloca ptr, align 8
  %4 = alloca i32, align 4
  store ptr %0, ptr %3, align 8
  %5 = load ptr, ptr %3, align 8
  %6 = getelementptr inbounds %struct.CVodeMemRec, ptr %5, i32 0, i32 186
  %7 = load ptr, ptr %6, align 8
  %8 = icmp ne ptr %7, null
  br i1 %8, label %9, label %14

9:                                                ; preds = %1
  %10 = load ptr, ptr %3, align 8
  %11 = getelementptr inbounds %struct.CVodeMemRec, ptr %10, i32 0, i32 170
  %12 = load ptr, ptr %11, align 8
  %13 = call i32 @SUNNonlinSolSetLSetupFn(ptr noundef %12, ptr noundef @cvNlsLSetupSensStg1)
  store i32 %13, ptr %4, align 4
  br label %19

14:                                               ; preds = %1
  %15 = load ptr, ptr %3, align 8
  %16 = getelementptr inbounds %struct.CVodeMemRec, ptr %15, i32 0, i32 170
  %17 = load ptr, ptr %16, align 8
  %18 = call i32 @SUNNonlinSolSetLSetupFn(ptr noundef %17, ptr noundef null)
  store i32 %18, ptr %4, align 4
  br label %19

19:                                               ; preds = %14, %9
  %20 = load i32, ptr %4, align 4
  %21 = icmp ne i32 %20, 0
  br i1 %21, label %22, label %24

22:                                               ; preds = %19
  %23 = load ptr, ptr %3, align 8
  call void (ptr, i32, i32, ptr, ptr, ptr, ...) @cvProcessError(ptr noundef %23, i32 noundef -22, i32 noundef 162, ptr noundef @__func__.cvNlsInitSensStg1, ptr noundef @.str, ptr noundef @.str.10)
  store i32 -13, ptr %2, align 4
  br label %56

24:                                               ; preds = %19
  %25 = load ptr, ptr %3, align 8
  %26 = getelementptr inbounds %struct.CVodeMemRec, ptr %25, i32 0, i32 187
  %27 = load ptr, ptr %26, align 8
  %28 = icmp ne ptr %27, null
  br i1 %28, label %29, label %34

29:                                               ; preds = %24
  %30 = load ptr, ptr %3, align 8
  %31 = getelementptr inbounds %struct.CVodeMemRec, ptr %30, i32 0, i32 170
  %32 = load ptr, ptr %31, align 8
  %33 = call i32 @SUNNonlinSolSetLSolveFn(ptr noundef %32, ptr noundef @cvNlsLSolveSensStg1)
  store i32 %33, ptr %4, align 4
  br label %39

34:                                               ; preds = %24
  %35 = load ptr, ptr %3, align 8
  %36 = getelementptr inbounds %struct.CVodeMemRec, ptr %35, i32 0, i32 170
  %37 = load ptr, ptr %36, align 8
  %38 = call i32 @SUNNonlinSolSetLSolveFn(ptr noundef %37, ptr noundef null)
  store i32 %38, ptr %4, align 4
  br label %39

39:                                               ; preds = %34, %29
  %40 = load i32, ptr %4, align 4
  %41 = icmp ne i32 %40, 0
  br i1 %41, label %42, label %44

42:                                               ; preds = %39
  %43 = load ptr, ptr %3, align 8
  call void (ptr, i32, i32, ptr, ptr, ptr, ...) @cvProcessError(ptr noundef %43, i32 noundef -22, i32 noundef 176, ptr noundef @__func__.cvNlsInitSensStg1, ptr noundef @.str, ptr noundef @.str.11)
  store i32 -13, ptr %2, align 4
  br label %56

44:                                               ; preds = %39
  %45 = load ptr, ptr %3, align 8
  %46 = getelementptr inbounds %struct.CVodeMemRec, ptr %45, i32 0, i32 170
  %47 = load ptr, ptr %46, align 8
  %48 = call i32 @SUNNonlinSolInitialize(ptr noundef %47)
  store i32 %48, ptr %4, align 4
  %49 = load i32, ptr %4, align 4
  %50 = icmp ne i32 %49, 0
  br i1 %50, label %51, label %53

51:                                               ; preds = %44
  %52 = load ptr, ptr %3, align 8
  call void (ptr, i32, i32, ptr, ptr, ptr, ...) @cvProcessError(ptr noundef %52, i32 noundef -22, i32 noundef 186, ptr noundef @__func__.cvNlsInitSensStg1, ptr noundef @.str, ptr noundef @.str.12)
  store i32 -13, ptr %2, align 4
  br label %56

53:                                               ; preds = %44
  %54 = load ptr, ptr %3, align 8
  %55 = getelementptr inbounds %struct.CVodeMemRec, ptr %54, i32 0, i32 173
  store i64 0, ptr %55, align 8
  store i32 0, ptr %2, align 4
  br label %56

56:                                               ; preds = %53, %51, %42, %22
  %57 = load i32, ptr %2, align 4
  ret i32 %57
}