; Function Attrs: nounwind uwtable
define range(i32 -13, 1) i32 @cvNlsInitSensStg1(ptr noundef %0) local_unnamed_addr #0 {
  %2 = getelementptr inbounds nuw i8, ptr %0, i64 1992
  %3 = load ptr, ptr %2, align 8
  %.not = icmp eq ptr %3, null
  %4 = getelementptr inbounds nuw i8, ptr %0, i64 1880
  %5 = load ptr, ptr %4, align 8
  %.cvNlsLSetupSensStg1 = select i1 %.not, ptr null, ptr @cvNlsLSetupSensStg1
  %6 = tail call i32 @SUNNonlinSolSetLSetupFn(ptr noundef %5, ptr noundef %.cvNlsLSetupSensStg1) #2
  %.not15 = icmp eq i32 %6, 0
  br i1 %.not15, label %8, label %7

7:                                                ; preds = %1
  tail call void (ptr, i32, i32, ptr, ptr, ptr, ...) @cvProcessError(ptr noundef nonnull %0, i32 noundef -22, i32 noundef 162, ptr noundef nonnull @__func__.cvNlsInitSensStg1, ptr noundef nonnull @.str, ptr noundef nonnull @.str.10) #2
  br label %22

8:                                                ; preds = %1
  %9 = getelementptr inbounds nuw i8, ptr %0, i64 2000
  %10 = load ptr, ptr %9, align 8
  %.not16 = icmp eq ptr %10, null
  %11 = getelementptr inbounds nuw i8, ptr %0, i64 1880
  %12 = load ptr, ptr %11, align 8
  %.cvNlsLSolveSensStg1 = select i1 %.not16, ptr null, ptr @cvNlsLSolveSensStg1
  %13 = tail call i32 @SUNNonlinSolSetLSolveFn(ptr noundef %12, ptr noundef %.cvNlsLSolveSensStg1) #2
  %.not17 = icmp eq i32 %13, 0
  br i1 %.not17, label %15, label %14

14:                                               ; preds = %8
  tail call void (ptr, i32, i32, ptr, ptr, ptr, ...) @cvProcessError(ptr noundef nonnull %0, i32 noundef -22, i32 noundef 176, ptr noundef nonnull @__func__.cvNlsInitSensStg1, ptr noundef nonnull @.str, ptr noundef nonnull @.str.11) #2
  br label %22

15:                                               ; preds = %8
  %16 = getelementptr inbounds nuw i8, ptr %0, i64 1880
  %17 = load ptr, ptr %16, align 8
  %18 = tail call i32 @SUNNonlinSolInitialize(ptr noundef %17) #2
  %.not18 = icmp eq i32 %18, 0
  br i1 %.not18, label %20, label %19

19:                                               ; preds = %15
  tail call void (ptr, i32, i32, ptr, ptr, ptr, ...) @cvProcessError(ptr noundef nonnull %0, i32 noundef -22, i32 noundef 186, ptr noundef nonnull @__func__.cvNlsInitSensStg1, ptr noundef nonnull @.str, ptr noundef nonnull @.str.12) #2
  br label %22

20:                                               ; preds = %15
  %21 = getelementptr inbounds nuw i8, ptr %0, i64 1896
  store i64 0, ptr %21, align 8
  br label %22

22:                                               ; preds = %20, %19, %14, %7
  %.014 = phi i32 [ -13, %7 ], [ -13, %14 ], [ -13, %19 ], [ 0, %20 ]
  ret i32 %.014
}